; Function Attrs: mustprogress nofree norecurse nosync nounwind memory(read, argmem: readwrite, inaccessiblemem: none) uwtable
define hidden void @_ZN2cv4gapi5fluid12cpu_baseline23run_bayergr2rgb_bg_implEPhPPKhi(ptr nocapture noundef %0, ptr nocapture noundef readonly %1, i32 noundef %2) local_unnamed_addr #6 {
  %4 = add i32 %2, -1
  %5 = icmp sgt i32 %2, 1
  br i1 %5, label %.lr.ph, label %._crit_edge

.lr.ph:                                           ; preds = %3
  %6 = getelementptr inbounds i8, ptr %1, i64 8
  %7 = getelementptr inbounds i8, ptr %1, i64 16
  %wide.trip.count = zext nneg i32 %4 to i64
  br label %8

8:                                                ; preds = %.lr.ph, %87
  %indvars.iv = phi i64 [ 0, %.lr.ph ], [ %indvars.iv.next.pre-phi, %87 ]
  %.08284 = phi i1 [ true, %.lr.ph ], [ %88, %87 ]
  br i1 %.08284, label %39, label %9

9:                                                ; preds = %8
  %10 = load ptr, ptr %6, align 8
  %11 = getelementptr i8, ptr %10, i64 %indvars.iv
  %12 = getelementptr i8, ptr %11, i64 -1
  %13 = load i8, ptr %12, align 1
  %14 = zext i8 %13 to i16
  %15 = getelementptr inbounds i8, ptr %11, i64 1
  %16 = load i8, ptr %15, align 1
  %17 = zext i8 %16 to i16
  %18 = add nuw nsw i16 %14, 1
  %19 = add nuw nsw i16 %18, %17
  %20 = lshr i16 %19, 1
  %21 = load i8, ptr %11, align 1
  %22 = load ptr, ptr %1, align 8
  %23 = getelementptr inbounds i8, ptr %22, i64 %indvars.iv
  %24 = load i8, ptr %23, align 1
  %25 = zext i8 %24 to i16
  %26 = load ptr, ptr %7, align 8
  %27 = getelementptr inbounds i8, ptr %26, i64 %indvars.iv
  %28 = load i8, ptr %27, align 1
  %29 = zext i8 %28 to i16
  %30 = add nuw nsw i16 %25, 1
  %31 = add nuw nsw i16 %30, %29
  %32 = lshr i16 %31, 1
  %33 = trunc nuw i16 %20 to i8
  %34 = mul nuw nsw i64 %indvars.iv, 3
  %35 = getelementptr inbounds i8, ptr %0, i64 %34
  store i8 %33, ptr %35, align 1
  %36 = getelementptr inbounds i8, ptr %35, i64 1
  store i8 %21, ptr %36, align 1
  %37 = trunc nuw i16 %32 to i8
  %38 = getelementptr inbounds i8, ptr %35, i64 2
  store i8 %37, ptr %38, align 1
  %.pre = add nuw nsw i64 %indvars.iv, 1
  br label %87

39:                                               ; preds = %8
  %40 = load ptr, ptr %1, align 8
  %41 = add nsw i64 %indvars.iv, -1
  %42 = getelementptr inbounds i8, ptr %40, i64 %41
  %43 = load i8, ptr %42, align 1
  %44 = zext i8 %43 to i16
  %45 = add nuw nsw i64 %indvars.iv, 1
  %46 = getelementptr inbounds i8, ptr %40, i64 %45
  %47 = load i8, ptr %46, align 1
  %48 = zext i8 %47 to i16
  %49 = load ptr, ptr %7, align 8
  %50 = getelementptr inbounds i8, ptr %49, i64 %41
  %51 = load i8, ptr %50, align 1
  %52 = zext i8 %51 to i16
  %53 = getelementptr inbounds i8, ptr %49, i64 %45
  %54 = load i8, ptr %53, align 1
  %55 = zext i8 %54 to i16
  %56 = add nuw nsw i16 %44, 2
  %57 = add nuw nsw i16 %56, %48
  %58 = add nuw nsw i16 %57, %52
  %59 = add nuw nsw i16 %58, %55
  %60 = lshr i16 %59, 2
  %61 = load ptr, ptr %6, align 8
  %62 = getelementptr inbounds i8, ptr %61, i64 %41
  %63 = load i8, ptr %62, align 1
  %64 = zext i8 %63 to i16
  %65 = getelementptr inbounds i8, ptr %61, i64 %45
  %66 = load i8, ptr %65, align 1
  %67 = zext i8 %66 to i16
  %68 = getelementptr inbounds i8, ptr %40, i64 %indvars.iv
  %69 = load i8, ptr %68, align 1
  %70 = zext i8 %69 to i16
  %71 = getelementptr inbounds i8, ptr %49, i64 %indvars.iv
  %72 = load i8, ptr %71, align 1
  %73 = zext i8 %72 to i16
  %74 = add nuw nsw i16 %64, 2
  %75 = add nuw nsw i16 %74, %67
  %76 = add nuw nsw i16 %75, %70
  %77 = add nuw nsw i16 %76, %73
  %78 = lshr i16 %77, 2
  %79 = getelementptr inbounds i8, ptr %61, i64 %indvars.iv
  %80 = load i8, ptr %79, align 1
  %81 = mul nuw nsw i64 %indvars.iv, 3
  %82 = getelementptr inbounds i8, ptr %0, i64 %81
  store i8 %80, ptr %82, align 1
  %83 = trunc nuw i16 %78 to i8
  %84 = getelementptr inbounds i8, ptr %82, i64 1
  store i8 %83, ptr %84, align 1
  %85 = trunc nuw i16 %60 to i8
  %86 = getelementptr inbounds i8, ptr %82, i64 2
  store i8 %85, ptr %86, align 1
  br label %87

87:                                               ; preds = %9, %39
  %indvars.iv.next.pre-phi = phi i64 [ %.pre, %9 ], [ %45, %39 ]
  %88 = xor i1 %.08284, true
  %exitcond.not = icmp eq i64 %indvars.iv.next.pre-phi, %wide.trip.count
  br i1 %exitcond.not, label %._crit_edge, label %8, !llvm.loop !9

._crit_edge:                                      ; preds = %87, %3
  %89 = getelementptr inbounds i8, ptr %0, i64 3
  %90 = load i8, ptr %89, align 1
  store i8 %90, ptr %0, align 1
  %91 = getelementptr inbounds i8, ptr %0, i64 4
  %92 = load i8, ptr %91, align 1
  %93 = getelementptr inbounds i8, ptr %0, i64 1
  store i8 %92, ptr %93, align 1
  %94 = getelementptr inbounds i8, ptr %0, i64 5
  %95 = load i8, ptr %94, align 1
  %96 = getelementptr inbounds i8, ptr %0, i64 2
  store i8 %95, ptr %96, align 1
  %97 = mul i32 %2, 3
  %98 = add i32 %97, -6
  %99 = sext i32 %98 to i64
  %100 = getelementptr inbounds i8, ptr %0, i64 %99
  %101 = load i8, ptr %100, align 1
  %102 = mul nsw i32 %4, 3
  %103 = sext i32 %102 to i64
  %104 = getelementptr inbounds i8, ptr %0, i64 %103
  store i8 %101, ptr %104, align 1
  %105 = add i32 %97, -5
  %106 = sext i32 %105 to i64
  %107 = getelementptr inbounds i8, ptr %0, i64 %106
  %108 = load i8, ptr %107, align 1
  %109 = getelementptr i8, ptr %104, i64 1
  store i8 %108, ptr %109, align 1
  %110 = add i32 %97, -4
  %111 = sext i32 %110 to i64
  %112 = getelementptr inbounds i8, ptr %0, i64 %111
  %113 = load i8, ptr %112, align 1
  %114 = getelementptr i8, ptr %104, i64 2
  store i8 %113, ptr %114, align 1
  ret void
}